target datalayout = "e-m:e-p270:32:32-p271:32:32-p272:64:64-i64:64-i128:128-f80:128-n8:16:32:64-S128"
target triple = "x86_64-pc-linux-gnu"

@date__strptime.rbimpl_id = internal global i64 0, align 8
@.str = private unnamed_addr constant [9 x i8] c"leftover\00", align 1
@date__strptime.rbimpl_id.1 = internal global i64 0, align 8
@.str.2 = private unnamed_addr constant [6 x i8] c"_fail\00", align 1
@date__strptime.rbimpl_id.3 = internal global i64 0, align 8
@.str.4 = private unnamed_addr constant [6 x i8] c"_cent\00", align 1
@date__strptime.rbimpl_id.5 = internal global i64 0, align 8
@.str.6 = private unnamed_addr constant [7 x i8] c"cwyear\00", align 1
@date__strptime.rbimpl_id.7 = internal global i64 0, align 8
@date__strptime.rbimpl_id.8 = internal global i64 0, align 8
@.str.9 = private unnamed_addr constant [5 x i8] c"year\00", align 1
@date__strptime.rbimpl_id.10 = internal global i64 0, align 8
@date__strptime.rbimpl_id.11 = internal global i64 0, align 8
@.str.12 = private unnamed_addr constant [7 x i8] c"_merid\00", align 1
@date__strptime.rbimpl_id.13 = internal global i64 0, align 8
@.str.14 = private unnamed_addr constant [5 x i8] c"hour\00", align 1
@date__strptime.rbimpl_id.15 = internal global i64 0, align 8

; Function Attrs: inlinehint nounwind sspstrong willreturn memory(read) uwtable
define internal i64 @rb_intern_const(ptr noundef nonnull %0) #16 {
  %2 = alloca ptr, align 8
  %3 = alloca i64, align 8
  store ptr %0, ptr %2, align 8, !tbaa !6
  call void @llvm.lifetime.start.p0(i64 8, ptr %3) #17
  %4 = load ptr, ptr %2, align 8, !tbaa !6
  %5 = call i64 @strlen(ptr noundef %4) #20
  store i64 %5, ptr %3, align 8, !tbaa !11
  %6 = load ptr, ptr %2, align 8, !tbaa !6
  %7 = load i64, ptr %3, align 8, !tbaa !11
  %8 = call i64 @rb_intern2(ptr noundef %6, i64 noundef %7)
  call void @llvm.lifetime.end.p0(i64 8, ptr %3) #17
  ret i64 %8
}

; Function Attrs: inlinehint nounwind sspstrong willreturn memory(none) uwtable
define internal zeroext i1 @RB_NIL_P(i64 noundef %0) #5 {
  %2 = alloca i64, align 8
  store i64 %0, ptr %2, align 8, !tbaa !11
  %3 = load i64, ptr %2, align 8, !tbaa !11
  %4 = icmp eq i64 %3, 4
  ret i1 %4
}

; Function Attrs: inlinehint nounwind sspstrong memory(argmem: readwrite, inaccessiblemem: readwrite) uwtable
define internal i64 @rbimpl_intern_const(ptr noundef nonnull %0, ptr noundef nonnull %1) #4 {
  %3 = alloca ptr, align 8
  %4 = alloca ptr, align 8
  store ptr %0, ptr %3, align 8, !tbaa !27
  store ptr %1, ptr %4, align 8, !tbaa !6
  br label %5

5:                                                ; preds = %10, %2
  %6 = load ptr, ptr %3, align 8, !tbaa !27
  %7 = load i64, ptr %6, align 8, !tbaa !11
  %8 = icmp ne i64 %7, 0
  %9 = xor i1 %8, true
  br i1 %9, label %10, label %14

10:                                               ; preds = %5
  %11 = load ptr, ptr %4, align 8, !tbaa !6
  %12 = call i64 @rb_intern_const(ptr noundef %11) #20
  %13 = load ptr, ptr %3, align 8, !tbaa !27
  store i64 %12, ptr %13, align 8, !tbaa !11
  br label %5, !llvm.loop !29

14:                                               ; preds = %5
  %15 = load ptr, ptr %3, align 8, !tbaa !27
  %16 = load i64, ptr %15, align 8, !tbaa !11
  ret i64 %16
}

; Function Attrs: nounwind sspstrong uwtable
define i64 @date__strptime(ptr noundef %0, i64 noundef %1, ptr noundef %2, i64 noundef %3, i64 noundef %4) #0 {
  %6 = alloca i64, align 8
  %7 = alloca ptr, align 8
  %8 = alloca i64, align 8
  %9 = alloca ptr, align 8
  %10 = alloca i64, align 8
  %11 = alloca i64, align 8
  %12 = alloca i64, align 8
  %13 = alloca i64, align 8
  %14 = alloca i64, align 8
  %15 = alloca i64, align 8
  %16 = alloca i64, align 8
  %17 = alloca i64, align 8
  %18 = alloca i32, align 4
  %19 = alloca i64, align 8
  %20 = alloca i64, align 8
  %21 = alloca i64, align 8
  %22 = alloca i64, align 8
  %23 = alloca i64, align 8
  %24 = alloca i64, align 8
  %25 = alloca i64, align 8
  %26 = alloca i64, align 8
  %27 = alloca i64, align 8
  %28 = alloca i64, align 8
  store ptr %0, ptr %7, align 8, !tbaa !6
  store i64 %1, ptr %8, align 8, !tbaa !11
  store ptr %2, ptr %9, align 8, !tbaa !6
  store i64 %3, ptr %10, align 8, !tbaa !11
  store i64 %4, ptr %11, align 8, !tbaa !11
  call void @llvm.lifetime.start.p0(i64 8, ptr %12) #17
  call void @llvm.lifetime.start.p0(i64 8, ptr %13) #17
  call void @llvm.lifetime.start.p0(i64 8, ptr %14) #17
  %29 = load ptr, ptr %7, align 8, !tbaa !6
  %30 = load i64, ptr %8, align 8, !tbaa !11
  %31 = load ptr, ptr %9, align 8, !tbaa !6
  %32 = load i64, ptr %10, align 8, !tbaa !11
  %33 = load i64, ptr %11, align 8, !tbaa !11
  %34 = call i64 @date__strptime_internal(ptr noundef %29, i64 noundef %30, ptr noundef %31, i64 noundef %32, i64 noundef %33)
  store i64 %34, ptr %12, align 8, !tbaa !11
  %35 = load i64, ptr %8, align 8, !tbaa !11
  %36 = load i64, ptr %12, align 8, !tbaa !11
  %37 = icmp ugt i64 %35, %36
  br i1 %37, label %38, label %60

38:                                               ; preds = %5
  call void @llvm.lifetime.start.p0(i64 8, ptr %15) #17
  br i1 false, label %39, label %44

39:                                               ; preds = %38
  %40 = load i64, ptr %8, align 8, !tbaa !11
  %41 = load i64, ptr %12, align 8, !tbaa !11
  %42 = sub i64 %40, %41
  %43 = call i1 @llvm.is.constant.i64(i64 %42)
  br label %44

44:                                               ; preds = %39, %38
  %45 = phi i1 [ false, %38 ], [ %43, %39 ]
  %46 = select i1 %45, ptr @rb_usascii_str_new_static, ptr @rb_usascii_str_new
  %47 = load ptr, ptr %7, align 8, !tbaa !6
  %48 = load i64, ptr %12, align 8, !tbaa !11
  %49 = getelementptr inbounds nuw i8, ptr %47, i64 %48
  %50 = load i64, ptr %8, align 8, !tbaa !11
  %51 = load i64, ptr %12, align 8, !tbaa !11
  %52 = sub i64 %50, %51
  %53 = call i64 %46(ptr noundef %49, i64 noundef %52)
  store i64 %53, ptr %15, align 8, !tbaa !11
  %54 = load i64, ptr %11, align 8, !tbaa !11
  %55 = call i64 @rbimpl_intern_const(ptr noundef @date__strptime.rbimpl_id, ptr noundef @.str) #18
  store i64 %55, ptr %16, align 8, !tbaa !11
  %56 = load i64, ptr %16, align 8, !tbaa !11
  %57 = call i64 @rb_id2sym(i64 noundef %56)
  %58 = load i64, ptr %15, align 8, !tbaa !11
  %59 = call i64 @rb_hash_aset(i64 noundef %54, i64 noundef %57, i64 noundef %58)
  call void @llvm.lifetime.end.p0(i64 8, ptr %15) #17
  br label %60

60:                                               ; preds = %44, %5
  %61 = load i64, ptr %11, align 8, !tbaa !11
  %62 = call i64 @rbimpl_intern_const(ptr noundef @date__strptime.rbimpl_id.1, ptr noundef @.str.2) #18
  store i64 %62, ptr %17, align 8, !tbaa !11
  %63 = load i64, ptr %17, align 8, !tbaa !11
  %64 = call i64 @rb_id2sym(i64 noundef %63)
  %65 = call i64 @rb_hash_aref(i64 noundef %61, i64 noundef %64)
  %66 = call zeroext i1 @RB_NIL_P(i64 noundef %65) #19
  br i1 %66, label %68, label %67

67:                                               ; preds = %60
  store i64 4, ptr %6, align 8
  store i32 1, ptr %18, align 4
  br label %143

68:                                               ; preds = %60
  %69 = load i64, ptr %11, align 8, !tbaa !11
  %70 = call i64 @rbimpl_intern_const(ptr noundef @date__strptime.rbimpl_id.3, ptr noundef @.str.4) #18
  store i64 %70, ptr %19, align 8, !tbaa !11
  %71 = load i64, ptr %19, align 8, !tbaa !11
  %72 = call i64 @rb_id2sym(i64 noundef %71)
  %73 = call i64 @rb_hash_delete(i64 noundef %69, i64 noundef %72)
  store i64 %73, ptr %13, align 8, !tbaa !11
  %74 = load i64, ptr %13, align 8, !tbaa !11
  %75 = call zeroext i1 @RB_NIL_P(i64 noundef %74) #19
  br i1 %75, label %113, label %76

76:                                               ; preds = %68
  call void @llvm.lifetime.start.p0(i64 8, ptr %20) #17
  %77 = load i64, ptr %11, align 8, !tbaa !11
  %78 = call i64 @rbimpl_intern_const(ptr noundef @date__strptime.rbimpl_id.5, ptr noundef @.str.6) #18
  store i64 %78, ptr %21, align 8, !tbaa !11
  %79 = load i64, ptr %21, align 8, !tbaa !11
  %80 = call i64 @rb_id2sym(i64 noundef %79)
  %81 = call i64 @rb_hash_aref(i64 noundef %77, i64 noundef %80)
  store i64 %81, ptr %20, align 8, !tbaa !11
  %82 = load i64, ptr %20, align 8, !tbaa !11
  %83 = call zeroext i1 @RB_NIL_P(i64 noundef %82) #19
  br i1 %83, label %94, label %84

84:                                               ; preds = %76
  %85 = load i64, ptr %11, align 8, !tbaa !11
  %86 = call i64 @rbimpl_intern_const(ptr noundef @date__strptime.rbimpl_id.7, ptr noundef @.str.6) #18
  store i64 %86, ptr %22, align 8, !tbaa !11
  %87 = load i64, ptr %22, align 8, !tbaa !11
  %88 = call i64 @rb_id2sym(i64 noundef %87)
  %89 = load i64, ptr %20, align 8, !tbaa !11
  %90 = load i64, ptr %13, align 8, !tbaa !11
  %91 = call i64 (i64, i64, i32, ...) @rb_funcall(i64 noundef %90, i64 noundef 42, i32 noundef 1, i64 noundef 201)
  %92 = call i64 (i64, i64, i32, ...) @rb_funcall(i64 noundef %89, i64 noundef 43, i32 noundef 1, i64 noundef %91)
  %93 = call i64 @rb_hash_aset(i64 noundef %85, i64 noundef %88, i64 noundef %92)
  br label %94

94:                                               ; preds = %84, %76
  %95 = load i64, ptr %11, align 8, !tbaa !11
  %96 = call i64 @rbimpl_intern_const(ptr noundef @date__strptime.rbimpl_id.8, ptr noundef @.str.9) #18
  store i64 %96, ptr %23, align 8, !tbaa !11
  %97 = load i64, ptr %23, align 8, !tbaa !11
  %98 = call i64 @rb_id2sym(i64 noundef %97)
  %99 = call i64 @rb_hash_aref(i64 noundef %95, i64 noundef %98)
  store i64 %99, ptr %20, align 8, !tbaa !11
  %100 = load i64, ptr %20, align 8, !tbaa !11
  %101 = call zeroext i1 @RB_NIL_P(i64 noundef %100) #19
  br i1 %101, label %112, label %102

102:                                              ; preds = %94
  %103 = load i64, ptr %11, align 8, !tbaa !11
  %104 = call i64 @rbimpl_intern_const(ptr noundef @date__strptime.rbimpl_id.10, ptr noundef @.str.9) #18
  store i64 %104, ptr %24, align 8, !tbaa !11
  %105 = load i64, ptr %24, align 8, !tbaa !11
  %106 = call i64 @rb_id2sym(i64 noundef %105)
  %107 = load i64, ptr %20, align 8, !tbaa !11
  %108 = load i64, ptr %13, align 8, !tbaa !11
  %109 = call i64 (i64, i64, i32, ...) @rb_funcall(i64 noundef %108, i64 noundef 42, i32 noundef 1, i64 noundef 201)
  %110 = call i64 (i64, i64, i32, ...) @rb_funcall(i64 noundef %107, i64 noundef 43, i32 noundef 1, i64 noundef %109)
  %111 = call i64 @rb_hash_aset(i64 noundef %103, i64 noundef %106, i64 noundef %110)
  br label %112

112:                                              ; preds = %102, %94
  call void @llvm.lifetime.end.p0(i64 8, ptr %20) #17
  br label %113

113:                                              ; preds = %112, %68
  %114 = load i64, ptr %11, align 8, !tbaa !11
  %115 = call i64 @rbimpl_intern_const(ptr noundef @date__strptime.rbimpl_id.11, ptr noundef @.str.12) #18
  store i64 %115, ptr %25, align 8, !tbaa !11
  %116 = load i64, ptr %25, align 8, !tbaa !11
  %117 = call i64 @rb_id2sym(i64 noundef %116)
  %118 = call i64 @rb_hash_delete(i64 noundef %114, i64 noundef %117)
  store i64 %118, ptr %14, align 8, !tbaa !11
  %119 = load i64, ptr %14, align 8, !tbaa !11
  %120 = call zeroext i1 @RB_NIL_P(i64 noundef %119) #19
  br i1 %120, label %141, label %121

121:                                              ; preds = %113
  call void @llvm.lifetime.start.p0(i64 8, ptr %26) #17
  %122 = load i64, ptr %11, align 8, !tbaa !11
  %123 = call i64 @rbimpl_intern_const(ptr noundef @date__strptime.rbimpl_id.13, ptr noundef @.str.14) #18
  store i64 %123, ptr %27, align 8, !tbaa !11
  %124 = load i64, ptr %27, align 8, !tbaa !11
  %125 = call i64 @rb_id2sym(i64 noundef %124)
  %126 = call i64 @rb_hash_aref(i64 noundef %122, i64 noundef %125)
  store i64 %126, ptr %26, align 8, !tbaa !11
  %127 = load i64, ptr %26, align 8, !tbaa !11
  %128 = call zeroext i1 @RB_NIL_P(i64 noundef %127) #19
  br i1 %128, label %140, label %129

129:                                              ; preds = %121
  %130 = load i64, ptr %26, align 8, !tbaa !11
  %131 = call i64 (i64, i64, i32, ...) @rb_funcall(i64 noundef %130, i64 noundef 37, i32 noundef 1, i64 noundef 25)
  store i64 %131, ptr %26, align 8, !tbaa !11
  %132 = load i64, ptr %11, align 8, !tbaa !11
  %133 = call i64 @rbimpl_intern_const(ptr noundef @date__strptime.rbimpl_id.15, ptr noundef @.str.14) #18
  store i64 %133, ptr %28, align 8, !tbaa !11
  %134 = load i64, ptr %28, align 8, !tbaa !11
  %135 = call i64 @rb_id2sym(i64 noundef %134)
  %136 = load i64, ptr %26, align 8, !tbaa !11
  %137 = load i64, ptr %14, align 8, !tbaa !11
  %138 = call i64 (i64, i64, i32, ...) @rb_funcall(i64 noundef %136, i64 noundef 43, i32 noundef 1, i64 noundef %137)
  %139 = call i64 @rb_hash_aset(i64 noundef %132, i64 noundef %135, i64 noundef %138)
  br label %140

140:                                              ; preds = %129, %121
  call void @llvm.lifetime.end.p0(i64 8, ptr %26) #17
  br label %141

141:                                              ; preds = %140, %113
  %142 = load i64, ptr %11, align 8, !tbaa !11
  store i64 %142, ptr %6, align 8
  store i32 1, ptr %18, align 4
  br label %143

143:                                              ; preds = %141, %67
  call void @llvm.lifetime.end.p0(i64 8, ptr %14) #17
  call void @llvm.lifetime.end.p0(i64 8, ptr %13) #17
  call void @llvm.lifetime.end.p0(i64 8, ptr %12) #17
  %144 = load i64, ptr %6, align 8
  ret i64 %144
}