; Function Attrs: nounwind sspstrong uwtable
define noundef i64 @date__strptime(ptr noundef %0, i64 noundef %1, ptr noundef readonly captures(none) %2, i64 noundef %3, i64 noundef %4) local_unnamed_addr #0 {
  %6 = tail call fastcc i64 @date__strptime_internal(ptr noundef %0, i64 noundef %1, ptr noundef %2, i64 noundef %3, i64 noundef %4)
  %7 = icmp ugt i64 %1, %6
  br i1 %7, label %8, label %15

8:                                                ; preds = %5
  %9 = getelementptr inbounds nuw i8, ptr %0, i64 %6
  %10 = sub nuw i64 %1, %6
  %11 = tail call i64 @rb_usascii_str_new(ptr noundef %9, i64 noundef %10) #10
  %.pr.i = load i64, ptr @date__strptime.rbimpl_id, align 8, !tbaa !6
  %.not4.i = icmp eq i64 %.pr.i, 0
  br i1 %.not4.i, label %.lr.ph.i, label %rbimpl_intern_const.exit

.lr.ph.i:                                         ; preds = %8, %.lr.ph.i
  %12 = tail call i64 @rb_intern2(ptr noundef nonnull @.str, i64 noundef 8) #10
  store i64 %12, ptr @date__strptime.rbimpl_id, align 8, !tbaa !6
  %.not.i = icmp eq i64 %12, 0
  br i1 %.not.i, label %.lr.ph.i, label %rbimpl_intern_const.exit, !llvm.loop !10

rbimpl_intern_const.exit:                         ; preds = %.lr.ph.i, %8
  %.lcssa.i = phi i64 [ %.pr.i, %8 ], [ %12, %.lr.ph.i ]
  %13 = tail call i64 @rb_id2sym(i64 noundef %.lcssa.i) #10
  %14 = tail call i64 @rb_hash_aset(i64 noundef %4, i64 noundef %13, i64 noundef %11) #10
  br label %15

15:                                               ; preds = %rbimpl_intern_const.exit, %5
  %.pr.i47 = load i64, ptr @date__strptime.rbimpl_id.1, align 8, !tbaa !6
  %.not4.i48 = icmp eq i64 %.pr.i47, 0
  br i1 %.not4.i48, label %.lr.ph.i50, label %rbimpl_intern_const.exit52

.lr.ph.i50:                                       ; preds = %15, %.lr.ph.i50
  %16 = tail call i64 @rb_intern2(ptr noundef nonnull @.str.2, i64 noundef 5) #10
  store i64 %16, ptr @date__strptime.rbimpl_id.1, align 8, !tbaa !6
  %.not.i51 = icmp eq i64 %16, 0
  br i1 %.not.i51, label %.lr.ph.i50, label %rbimpl_intern_const.exit52, !llvm.loop !10

rbimpl_intern_const.exit52:                       ; preds = %.lr.ph.i50, %15
  %.lcssa.i49 = phi i64 [ %.pr.i47, %15 ], [ %16, %.lr.ph.i50 ]
  %17 = tail call i64 @rb_id2sym(i64 noundef %.lcssa.i49) #10
  %18 = tail call i64 @rb_hash_aref(i64 noundef %4, i64 noundef %17) #10
  %19 = icmp eq i64 %18, 4
  br i1 %19, label %20, label %63

20:                                               ; preds = %rbimpl_intern_const.exit52
  %.pr.i53 = load i64, ptr @date__strptime.rbimpl_id.3, align 8, !tbaa !6
  %.not4.i54 = icmp eq i64 %.pr.i53, 0
  br i1 %.not4.i54, label %.lr.ph.i56, label %rbimpl_intern_const.exit58

.lr.ph.i56:                                       ; preds = %20, %.lr.ph.i56
  %21 = tail call i64 @rb_intern2(ptr noundef nonnull @.str.4, i64 noundef 5) #10
  store i64 %21, ptr @date__strptime.rbimpl_id.3, align 8, !tbaa !6
  %.not.i57 = icmp eq i64 %21, 0
  br i1 %.not.i57, label %.lr.ph.i56, label %rbimpl_intern_const.exit58, !llvm.loop !10

rbimpl_intern_const.exit58:                       ; preds = %.lr.ph.i56, %20
  %.lcssa.i55 = phi i64 [ %.pr.i53, %20 ], [ %21, %.lr.ph.i56 ]
  %22 = tail call i64 @rb_id2sym(i64 noundef %.lcssa.i55) #10
  %23 = tail call i64 @rb_hash_delete(i64 noundef %4, i64 noundef %22) #10
  %24 = icmp eq i64 %23, 4
  br i1 %24, label %47, label %25

25:                                               ; preds = %rbimpl_intern_const.exit58
  %.pr.i59 = load i64, ptr @date__strptime.rbimpl_id.5, align 8, !tbaa !6
  %.not4.i60 = icmp eq i64 %.pr.i59, 0
  br i1 %.not4.i60, label %.lr.ph.i62, label %rbimpl_intern_const.exit64

.lr.ph.i62:                                       ; preds = %25, %.lr.ph.i62
  %26 = tail call i64 @rb_intern2(ptr noundef nonnull @.str.6, i64 noundef 6) #10
  store i64 %26, ptr @date__strptime.rbimpl_id.5, align 8, !tbaa !6
  %.not.i63 = icmp eq i64 %26, 0
  br i1 %.not.i63, label %.lr.ph.i62, label %rbimpl_intern_const.exit64, !llvm.loop !10

rbimpl_intern_const.exit64:                       ; preds = %.lr.ph.i62, %25
  %.lcssa.i61 = phi i64 [ %.pr.i59, %25 ], [ %26, %.lr.ph.i62 ]
  %27 = tail call i64 @rb_id2sym(i64 noundef %.lcssa.i61) #10
  %28 = tail call i64 @rb_hash_aref(i64 noundef %4, i64 noundef %27) #10
  %29 = icmp eq i64 %28, 4
  br i1 %29, label %36, label %30

30:                                               ; preds = %rbimpl_intern_const.exit64
  %.pr.i65 = load i64, ptr @date__strptime.rbimpl_id.7, align 8, !tbaa !6
  %.not4.i66 = icmp eq i64 %.pr.i65, 0
  br i1 %.not4.i66, label %.lr.ph.i68, label %rbimpl_intern_const.exit70

.lr.ph.i68:                                       ; preds = %30, %.lr.ph.i68
  %31 = tail call i64 @rb_intern2(ptr noundef nonnull @.str.6, i64 noundef 6) #10
  store i64 %31, ptr @date__strptime.rbimpl_id.7, align 8, !tbaa !6
  %.not.i69 = icmp eq i64 %31, 0
  br i1 %.not.i69, label %.lr.ph.i68, label %rbimpl_intern_const.exit70, !llvm.loop !10

rbimpl_intern_const.exit70:                       ; preds = %.lr.ph.i68, %30
  %.lcssa.i67 = phi i64 [ %.pr.i65, %30 ], [ %31, %.lr.ph.i68 ]
  %32 = tail call i64 @rb_id2sym(i64 noundef %.lcssa.i67) #10
  %33 = tail call i64 (i64, i64, i32, ...) @rb_funcall(i64 noundef %23, i64 noundef 42, i32 noundef 1, i64 noundef 201) #10
  %34 = tail call i64 (i64, i64, i32, ...) @rb_funcall(i64 noundef %28, i64 noundef 43, i32 noundef 1, i64 noundef %33) #10
  %35 = tail call i64 @rb_hash_aset(i64 noundef %4, i64 noundef %32, i64 noundef %34) #10
  br label %36

36:                                               ; preds = %rbimpl_intern_const.exit70, %rbimpl_intern_const.exit64
  %.pr.i71 = load i64, ptr @date__strptime.rbimpl_id.8, align 8, !tbaa !6
  %.not4.i72 = icmp eq i64 %.pr.i71, 0
  br i1 %.not4.i72, label %.lr.ph.i74, label %rbimpl_intern_const.exit76

.lr.ph.i74:                                       ; preds = %36, %.lr.ph.i74
  %37 = tail call i64 @rb_intern2(ptr noundef nonnull @.str.9, i64 noundef 4) #10
  store i64 %37, ptr @date__strptime.rbimpl_id.8, align 8, !tbaa !6
  %.not.i75 = icmp eq i64 %37, 0
  br i1 %.not.i75, label %.lr.ph.i74, label %rbimpl_intern_const.exit76, !llvm.loop !10

rbimpl_intern_const.exit76:                       ; preds = %.lr.ph.i74, %36
  %.lcssa.i73 = phi i64 [ %.pr.i71, %36 ], [ %37, %.lr.ph.i74 ]
  %38 = tail call i64 @rb_id2sym(i64 noundef %.lcssa.i73) #10
  %39 = tail call i64 @rb_hash_aref(i64 noundef %4, i64 noundef %38) #10
  %40 = icmp eq i64 %39, 4
  br i1 %40, label %47, label %41

41:                                               ; preds = %rbimpl_intern_const.exit76
  %.pr.i77 = load i64, ptr @date__strptime.rbimpl_id.10, align 8, !tbaa !6
  %.not4.i78 = icmp eq i64 %.pr.i77, 0
  br i1 %.not4.i78, label %.lr.ph.i80, label %rbimpl_intern_const.exit82

.lr.ph.i80:                                       ; preds = %41, %.lr.ph.i80
  %42 = tail call i64 @rb_intern2(ptr noundef nonnull @.str.9, i64 noundef 4) #10
  store i64 %42, ptr @date__strptime.rbimpl_id.10, align 8, !tbaa !6
  %.not.i81 = icmp eq i64 %42, 0
  br i1 %.not.i81, label %.lr.ph.i80, label %rbimpl_intern_const.exit82, !llvm.loop !10

rbimpl_intern_const.exit82:                       ; preds = %.lr.ph.i80, %41
  %.lcssa.i79 = phi i64 [ %.pr.i77, %41 ], [ %42, %.lr.ph.i80 ]
  %43 = tail call i64 @rb_id2sym(i64 noundef %.lcssa.i79) #10
  %44 = tail call i64 (i64, i64, i32, ...) @rb_funcall(i64 noundef %23, i64 noundef 42, i32 noundef 1, i64 noundef 201) #10
  %45 = tail call i64 (i64, i64, i32, ...) @rb_funcall(i64 noundef %39, i64 noundef 43, i32 noundef 1, i64 noundef %44) #10
  %46 = tail call i64 @rb_hash_aset(i64 noundef %4, i64 noundef %43, i64 noundef %45) #10
  br label %47

47:                                               ; preds = %rbimpl_intern_const.exit76, %rbimpl_intern_const.exit82, %rbimpl_intern_const.exit58
  %.pr.i83 = load i64, ptr @date__strptime.rbimpl_id.11, align 8, !tbaa !6
  %.not4.i84 = icmp eq i64 %.pr.i83, 0
  br i1 %.not4.i84, label %.lr.ph.i86, label %rbimpl_intern_const.exit88

.lr.ph.i86:                                       ; preds = %47, %.lr.ph.i86
  %48 = tail call i64 @rb_intern2(ptr noundef nonnull @.str.12, i64 noundef 6) #10
  store i64 %48, ptr @date__strptime.rbimpl_id.11, align 8, !tbaa !6
  %.not.i87 = icmp eq i64 %48, 0
  br i1 %.not.i87, label %.lr.ph.i86, label %rbimpl_intern_const.exit88, !llvm.loop !10

rbimpl_intern_const.exit88:                       ; preds = %.lr.ph.i86, %47
  %.lcssa.i85 = phi i64 [ %.pr.i83, %47 ], [ %48, %.lr.ph.i86 ]
  %49 = tail call i64 @rb_id2sym(i64 noundef %.lcssa.i85) #10
  %50 = tail call i64 @rb_hash_delete(i64 noundef %4, i64 noundef %49) #10
  %51 = icmp eq i64 %50, 4
  br i1 %51, label %63, label %52

52:                                               ; preds = %rbimpl_intern_const.exit88
  %.pr.i89 = load i64, ptr @date__strptime.rbimpl_id.13, align 8, !tbaa !6
  %.not4.i90 = icmp eq i64 %.pr.i89, 0
  br i1 %.not4.i90, label %.lr.ph.i92, label %rbimpl_intern_const.exit94

.lr.ph.i92:                                       ; preds = %52, %.lr.ph.i92
  %53 = tail call i64 @rb_intern2(ptr noundef nonnull @.str.14, i64 noundef 4) #10
  store i64 %53, ptr @date__strptime.rbimpl_id.13, align 8, !tbaa !6
  %.not.i93 = icmp eq i64 %53, 0
  br i1 %.not.i93, label %.lr.ph.i92, label %rbimpl_intern_const.exit94, !llvm.loop !10

rbimpl_intern_const.exit94:                       ; preds = %.lr.ph.i92, %52
  %.lcssa.i91 = phi i64 [ %.pr.i89, %52 ], [ %53, %.lr.ph.i92 ]
  %54 = tail call i64 @rb_id2sym(i64 noundef %.lcssa.i91) #10
  %55 = tail call i64 @rb_hash_aref(i64 noundef %4, i64 noundef %54) #10
  %56 = icmp eq i64 %55, 4
  br i1 %56, label %63, label %57

57:                                               ; preds = %rbimpl_intern_const.exit94
  %58 = tail call i64 (i64, i64, i32, ...) @rb_funcall(i64 noundef %55, i64 noundef 37, i32 noundef 1, i64 noundef 25) #10
  %.pr.i95 = load i64, ptr @date__strptime.rbimpl_id.15, align 8, !tbaa !6
  %.not4.i96 = icmp eq i64 %.pr.i95, 0
  br i1 %.not4.i96, label %.lr.ph.i98, label %rbimpl_intern_const.exit100

.lr.ph.i98:                                       ; preds = %57, %.lr.ph.i98
  %59 = tail call i64 @rb_intern2(ptr noundef nonnull @.str.14, i64 noundef 4) #10
  store i64 %59, ptr @date__strptime.rbimpl_id.15, align 8, !tbaa !6
  %.not.i99 = icmp eq i64 %59, 0
  br i1 %.not.i99, label %.lr.ph.i98, label %rbimpl_intern_const.exit100, !llvm.loop !10

rbimpl_intern_const.exit100:                      ; preds = %.lr.ph.i98, %57
  %.lcssa.i97 = phi i64 [ %.pr.i95, %57 ], [ %59, %.lr.ph.i98 ]
  %60 = tail call i64 @rb_id2sym(i64 noundef %.lcssa.i97) #10
  %61 = tail call i64 (i64, i64, i32, ...) @rb_funcall(i64 noundef %58, i64 noundef 43, i32 noundef 1, i64 noundef %50) #10
  %62 = tail call i64 @rb_hash_aset(i64 noundef %4, i64 noundef %60, i64 noundef %61) #10
  br label %63

63:                                               ; preds = %rbimpl_intern_const.exit88, %rbimpl_intern_const.exit100, %rbimpl_intern_const.exit94, %rbimpl_intern_const.exit52
  %.0 = phi i64 [ 4, %rbimpl_intern_const.exit52 ], [ %4, %rbimpl_intern_const.exit94 ], [ %4, %rbimpl_intern_const.exit100 ], [ %4, %rbimpl_intern_const.exit88 ]
  ret i64 %.0
}